; Function Attrs: nounwind uwtable
define zeroext i8 @l_Lean_Environment_hasUnsafe___lambda__1(ptr noundef %0, ptr noundef %1) local_unnamed_addr #1 {
  %3 = ptrtoint ptr %1 to i64
  %4 = and i64 %3, 1
  %.not.i27 = icmp eq i64 %4, 0
  br i1 %.not.i27, label %lean_obj_tag.exit.thread, label %lean_obj_tag.exit

lean_obj_tag.exit:                                ; preds = %2
  %5 = and i64 %3, 8589934590
  %6 = icmp eq i64 %5, 8
  br i1 %6, label %9, label %lean_dec.exit18

lean_obj_tag.exit.thread:                         ; preds = %2
  %7 = getelementptr i8, ptr %1, i64 4
  %.val.i = load i32, ptr %7, align 4
  %.mask = and i32 %.val.i, -16777216
  %8 = icmp eq i32 %.mask, 67108864
  br i1 %8, label %9, label %.thread

9:                                                ; preds = %lean_obj_tag.exit.thread, %lean_obj_tag.exit
  %10 = getelementptr inbounds nuw i8, ptr %1, i64 8
  %11 = load ptr, ptr %10, align 8, !tbaa !9
  %12 = ptrtoint ptr %11 to i64
  %13 = and i64 %12, 1
  %.not40 = icmp eq i64 %13, 0
  br i1 %.not40, label %14, label %lean_inc.exit17

14:                                               ; preds = %9
  %.val.i28 = load i32, ptr %11, align 4, !tbaa !4
  %15 = icmp sgt i32 %.val.i28, 0
  br i1 %15, label %16, label %18, !prof !11

16:                                               ; preds = %14
  %17 = add nuw i32 %.val.i28, 1
  store i32 %17, ptr %11, align 4, !tbaa !4
  br label %lean_inc.exit17

18:                                               ; preds = %14
  %.not.i29 = icmp eq i32 %.val.i28, 0
  br i1 %.not.i29, label %lean_inc.exit17, label %19

19:                                               ; preds = %18
  tail call void @lean_inc_ref_cold(ptr noundef nonnull %11) #10
  br label %lean_inc.exit17

lean_inc.exit17:                                  ; preds = %19, %18, %16, %9
  br i1 %.not.i27, label %20, label %lean_dec.exit20

20:                                               ; preds = %lean_inc.exit17
  %21 = load i32, ptr %1, align 4, !tbaa !4
  %22 = icmp sgt i32 %21, 1
  br i1 %22, label %23, label %25, !prof !11

23:                                               ; preds = %20
  %24 = add nsw i32 %21, -1
  store i32 %24, ptr %1, align 4, !tbaa !4
  br label %lean_dec.exit20

25:                                               ; preds = %20
  %.not.i = icmp eq i32 %21, 0
  br i1 %.not.i, label %lean_dec.exit20, label %26

26:                                               ; preds = %25
  tail call void @lean_dec_ref_cold(ptr noundef nonnull %1) #10
  br label %lean_dec.exit20

lean_dec.exit20:                                  ; preds = %26, %25, %23, %lean_inc.exit17
  %27 = tail call ptr @l_Lean_Environment_findAsync_x3f(ptr noundef %0, ptr noundef %11, i8 noundef zeroext 0)
  %28 = ptrtoint ptr %27 to i64
  %29 = and i64 %28, 1
  %.not.i30 = icmp eq i64 %29, 0
  br i1 %.not.i30, label %33, label %30

30:                                               ; preds = %lean_dec.exit20
  %31 = lshr i64 %28, 1
  %32 = trunc i64 %31 to i32
  br label %lean_obj_tag.exit33

33:                                               ; preds = %lean_dec.exit20
  %34 = getelementptr i8, ptr %27, i64 4
  %.val.i32 = load i32, ptr %34, align 4
  %35 = lshr i32 %.val.i32, 24
  br label %lean_obj_tag.exit33

lean_obj_tag.exit33:                              ; preds = %30, %33
  %.0.i31 = phi i32 [ %32, %30 ], [ %35, %33 ]
  %36 = icmp eq i32 %.0.i31, 0
  br i1 %36, label %l_Lean_AsyncConstantInfo_isUnsafe.exit, label %37

37:                                               ; preds = %lean_obj_tag.exit33
  %38 = getelementptr inbounds nuw i8, ptr %27, i64 8
  %39 = load ptr, ptr %38, align 8, !tbaa !9
  %40 = ptrtoint ptr %39 to i64
  %41 = and i64 %40, 1
  %.not42 = icmp eq i64 %41, 0
  br i1 %.not42, label %42, label %lean_inc.exit

42:                                               ; preds = %37
  %.val.i34 = load i32, ptr %39, align 4, !tbaa !4
  %43 = icmp sgt i32 %.val.i34, 0
  br i1 %43, label %44, label %46, !prof !11

44:                                               ; preds = %42
  %45 = add nuw i32 %.val.i34, 1
  store i32 %45, ptr %39, align 4, !tbaa !4
  br label %lean_inc.exit

46:                                               ; preds = %42
  %.not.i35 = icmp eq i32 %.val.i34, 0
  br i1 %.not.i35, label %lean_inc.exit, label %47

47:                                               ; preds = %46
  tail call void @lean_inc_ref_cold(ptr noundef nonnull %39) #10
  br label %lean_inc.exit

lean_inc.exit:                                    ; preds = %47, %46, %44, %37
  br i1 %.not.i30, label %48, label %lean_dec.exit19

48:                                               ; preds = %lean_inc.exit
  %49 = load i32, ptr %27, align 4, !tbaa !4
  %50 = icmp sgt i32 %49, 1
  br i1 %50, label %51, label %53, !prof !11

51:                                               ; preds = %48
  %52 = add nsw i32 %49, -1
  store i32 %52, ptr %27, align 4, !tbaa !4
  br label %lean_dec.exit19

53:                                               ; preds = %48
  %.not.i21 = icmp eq i32 %49, 0
  br i1 %.not.i21, label %lean_dec.exit19, label %54

54:                                               ; preds = %53
  tail call void @lean_dec_ref_cold(ptr noundef nonnull %27) #10
  br label %lean_dec.exit19

lean_dec.exit19:                                  ; preds = %54, %53, %51, %lean_inc.exit
  %55 = getelementptr inbounds nuw i8, ptr %39, i64 32
  %56 = load i8, ptr %55, align 1, !tbaa !18
  %57 = icmp eq i8 %56, 1
  br i1 %57, label %58, label %lean_dec.exit10.i

58:                                               ; preds = %lean_dec.exit19
  br i1 %.not42, label %59, label %l_Lean_AsyncConstantInfo_isUnsafe.exit

59:                                               ; preds = %58
  %60 = load i32, ptr %39, align 4, !tbaa !4
  %61 = icmp sgt i32 %60, 1
  br i1 %61, label %62, label %64, !prof !11

62:                                               ; preds = %59
  %63 = add nsw i32 %60, -1
  store i32 %63, ptr %39, align 4, !tbaa !4
  br label %l_Lean_AsyncConstantInfo_isUnsafe.exit

64:                                               ; preds = %59
  %.not.i.i = icmp eq i32 %60, 0
  br i1 %.not.i.i, label %l_Lean_AsyncConstantInfo_isUnsafe.exit, label %65

65:                                               ; preds = %64
  tail call void @lean_dec_ref_cold(ptr noundef nonnull %39) #10
  br label %l_Lean_AsyncConstantInfo_isUnsafe.exit

lean_dec.exit10.i:                                ; preds = %lean_dec.exit19
  %66 = tail call ptr @l_Lean_AsyncConstantInfo_toConstantInfo(ptr noundef nonnull %39)
  %67 = tail call zeroext i8 @l_Lean_ConstantInfo_isUnsafe(ptr noundef %66) #10
  %68 = ptrtoint ptr %66 to i64
  %69 = and i64 %68, 1
  %.not.i37 = icmp eq i64 %69, 0
  br i1 %.not.i37, label %70, label %l_Lean_AsyncConstantInfo_isUnsafe.exit

70:                                               ; preds = %lean_dec.exit10.i
  %71 = load i32, ptr %66, align 4, !tbaa !4
  %72 = icmp sgt i32 %71, 1
  br i1 %72, label %73, label %75, !prof !11

73:                                               ; preds = %70
  %74 = add nsw i32 %71, -1
  store i32 %74, ptr %66, align 4, !tbaa !4
  br label %l_Lean_AsyncConstantInfo_isUnsafe.exit

75:                                               ; preds = %70
  %.not.i14.i = icmp eq i32 %71, 0
  br i1 %.not.i14.i, label %l_Lean_AsyncConstantInfo_isUnsafe.exit, label %76

76:                                               ; preds = %75
  tail call void @lean_dec_ref_cold(ptr noundef nonnull %66) #10
  br label %l_Lean_AsyncConstantInfo_isUnsafe.exit

.thread:                                          ; preds = %lean_obj_tag.exit.thread
  %77 = load i32, ptr %1, align 4, !tbaa !4
  %78 = icmp sgt i32 %77, 1
  br i1 %78, label %79, label %81, !prof !11

79:                                               ; preds = %.thread
  %80 = add nsw i32 %77, -1
  store i32 %80, ptr %1, align 4, !tbaa !4
  br label %lean_dec.exit18

81:                                               ; preds = %.thread
  %.not.i23 = icmp eq i32 %77, 0
  br i1 %.not.i23, label %lean_dec.exit18, label %82

82:                                               ; preds = %81
  tail call void @lean_dec_ref_cold(ptr noundef nonnull %1) #10
  br label %lean_dec.exit18

lean_dec.exit18:                                  ; preds = %lean_obj_tag.exit, %82, %81, %79
  %83 = ptrtoint ptr %0 to i64
  %84 = and i64 %83, 1
  %.not = icmp eq i64 %84, 0
  br i1 %.not, label %85, label %l_Lean_AsyncConstantInfo_isUnsafe.exit

85:                                               ; preds = %lean_dec.exit18
  %86 = load i32, ptr %0, align 4, !tbaa !4
  %87 = icmp sgt i32 %86, 1
  br i1 %87, label %88, label %90, !prof !11

88:                                               ; preds = %85
  %89 = add nsw i32 %86, -1
  store i32 %89, ptr %0, align 4, !tbaa !4
  br label %l_Lean_AsyncConstantInfo_isUnsafe.exit

90:                                               ; preds = %85
  %.not.i25 = icmp eq i32 %86, 0
  br i1 %.not.i25, label %l_Lean_AsyncConstantInfo_isUnsafe.exit, label %91

91:                                               ; preds = %90
  tail call void @lean_dec_ref_cold(ptr noundef nonnull %0) #10
  br label %l_Lean_AsyncConstantInfo_isUnsafe.exit

l_Lean_AsyncConstantInfo_isUnsafe.exit:           ; preds = %lean_dec.exit18, %88, %90, %91, %76, %75, %73, %lean_dec.exit10.i, %65, %64, %62, %58, %lean_obj_tag.exit33
  %.1 = phi i8 [ 0, %lean_obj_tag.exit33 ], [ 0, %65 ], [ 0, %64 ], [ 0, %62 ], [ 0, %58 ], [ %67, %76 ], [ %67, %75 ], [ %67, %73 ], [ %67, %lean_dec.exit10.i ], [ 0, %91 ], [ 0, %90 ], [ 0, %88 ], [ 0, %lean_dec.exit18 ]
  ret i8 %.1
}